ARM GAS  /var/folders/8h/87zzc5m97zn7wd66_2xptdl80000gn/T//ccVzDg46.s 			page 1


   1              		.cpu cortex-m7
   2              		.eabi_attribute 27, 1	@ Tag_ABI_HardFP_use
   3              		.eabi_attribute 28, 1	@ Tag_ABI_VFP_args
   4              		.eabi_attribute 20, 1	@ Tag_ABI_FP_denormal
   5              		.eabi_attribute 21, 1	@ Tag_ABI_FP_exceptions
   6              		.eabi_attribute 23, 3	@ Tag_ABI_FP_number_model
   7              		.eabi_attribute 24, 1	@ Tag_ABI_align8_needed
   8              		.eabi_attribute 25, 1	@ Tag_ABI_align8_preserved
   9              		.eabi_attribute 26, 1	@ Tag_ABI_enum_size
  10              		.eabi_attribute 30, 2	@ Tag_ABI_optimization_goals
  11              		.eabi_attribute 34, 1	@ Tag_CPU_unaligned_access
  12              		.eabi_attribute 18, 4	@ Tag_ABI_PCS_wchar_t
  13              		.file	"main.c"
  14              	@ GNU C17 (GNU Tools for Arm Embedded Processors 9-2019-q4-major) version 9.2.1 20191025 (release) 
  15              	@	compiled by GNU C version 4.2.1 Compatible Apple LLVM 9.0.0 (clang-900.0.39.2), GMP version 6.1.0
  16              	
  17              	@ GGC heuristics: --param ggc-min-expand=100 --param ggc-min-heapsize=131072
  18              	@ options passed:  -I . -I . -I /Users/sam/Developer/PlaydateSDK/C_API
  19              	@ -imultilib thumb/v7e-m+fp/hard
  20              	@ -iprefix /usr/local/playdate/gcc-arm-none-eabi-9-2019-q4-major/bin/../lib/gcc/arm-none-eabi/9.2.1
  21              	@ -isysroot /usr/local/playdate/gcc-arm-none-eabi-9-2019-q4-major/bin/../arm-none-eabi
  22              	@ -MD build/src/main.d -MF build/dep/main.o.d -MP -MQ build/src/main.o
  23              	@ -D__USES_INITFINI__ -D __FPU_USED=1 -D TARGET_PLAYDATE=1
  24              	@ -D TARGET_EXTENSION=1 src/main.c -mthumb -mcpu=cortex-m7 -mfloat-abi=hard
  25              	@ -mfpu=fpv5-sp-d16 -march=armv7e-m+fpv5 -auxbase-strip build/src/main.o -g
  26              	@ -gdwarf-2 -O2 -Wall -Wno-unused -Wstrict-prototypes -Wno-unknown-pragmas
  27              	@ -Wdouble-promotion -falign-functions=16 -fomit-frame-pointer
  28              	@ -fverbose-asm -ffunction-sections -fdata-sections
  29              	@ options enabled:  -faggressive-loop-optimizations -falign-functions
  30              	@ -falign-jumps -falign-labels -falign-loops -fassume-phsa -fauto-inc-dec
  31              	@ -fbranch-count-reg -fcaller-saves -fcombine-stack-adjustments -fcommon
  32              	@ -fcompare-elim -fcprop-registers -fcrossjumping -fcse-follow-jumps
  33              	@ -fdata-sections -fdefer-pop -fdelete-null-pointer-checks -fdevirtualize
  34              	@ -fdevirtualize-speculatively -fdwarf2-cfi-asm -fearly-inlining
  35              	@ -feliminate-unused-debug-types -fexpensive-optimizations
  36              	@ -fforward-propagate -ffp-int-builtin-inexact -ffunction-cse
  37              	@ -ffunction-sections -fgcse -fgcse-lm -fgnu-runtime -fgnu-unique
  38              	@ -fguess-branch-probability -fhoist-adjacent-loads -fident -fif-conversion
  39              	@ -fif-conversion2 -findirect-inlining -finline -finline-atomics
  40              	@ -finline-functions-called-once -finline-small-functions -fipa-bit-cp
  41              	@ -fipa-cp -fipa-icf -fipa-icf-functions -fipa-icf-variables -fipa-profile
  42              	@ -fipa-pure-const -fipa-ra -fipa-reference -fipa-reference-addressable
  43              	@ -fipa-sra -fipa-stack-alignment -fipa-vrp -fira-hoist-pressure
  44              	@ -fira-share-save-slots -fira-share-spill-slots
  45              	@ -fisolate-erroneous-paths-dereference -fivopts -fkeep-static-consts
  46              	@ -fleading-underscore -flifetime-dse -flra-remat -flto-odr-type-merging
  47              	@ -fmath-errno -fmerge-constants -fmerge-debug-strings
  48              	@ -fmove-loop-invariants -fomit-frame-pointer -foptimize-sibling-calls
  49              	@ -foptimize-strlen -fpartial-inlining -fpeephole -fpeephole2 -fplt
  50              	@ -fprefetch-loop-arrays -freg-struct-return -freorder-blocks
  51              	@ -freorder-functions -frerun-cse-after-loop
  52              	@ -fsched-critical-path-heuristic -fsched-dep-count-heuristic
  53              	@ -fsched-group-heuristic -fsched-interblock -fsched-last-insn-heuristic
  54              	@ -fsched-pressure -fsched-rank-heuristic -fsched-spec
  55              	@ -fsched-spec-insn-heuristic -fsched-stalled-insns-dep -fschedule-insns
  56              	@ -fschedule-insns2 -fsection-anchors -fsemantic-interposition
  57              	@ -fshow-column -fshrink-wrap -fshrink-wrap-separate -fsigned-zeros
ARM GAS  /var/folders/8h/87zzc5m97zn7wd66_2xptdl80000gn/T//ccVzDg46.s 			page 2


  58              	@ -fsplit-ivs-in-unroller -fsplit-wide-types -fssa-backprop -fssa-phiopt
  59              	@ -fstdarg-opt -fstore-merging -fstrict-aliasing
  60              	@ -fstrict-volatile-bitfields -fsync-libcalls -fthread-jumps
  61              	@ -ftoplevel-reorder -ftrapping-math -ftree-bit-ccp -ftree-builtin-call-dce
  62              	@ -ftree-ccp -ftree-ch -ftree-coalesce-vars -ftree-copy-prop -ftree-cselim
  63              	@ -ftree-dce -ftree-dominator-opts -ftree-dse -ftree-forwprop -ftree-fre
  64              	@ -ftree-loop-if-convert -ftree-loop-im -ftree-loop-ivcanon
  65              	@ -ftree-loop-optimize -ftree-parallelize-loops= -ftree-phiprop -ftree-pre
  66              	@ -ftree-pta -ftree-reassoc -ftree-scev-cprop -ftree-sink -ftree-slsr
  67              	@ -ftree-sra -ftree-switch-conversion -ftree-tail-merge -ftree-ter
  68              	@ -ftree-vrp -funit-at-a-time -fvar-tracking -fvar-tracking-assignments
  69              	@ -fverbose-asm -fzero-initialized-in-bss -masm-syntax-unified -mbe32
  70              	@ -mlittle-endian -mpic-data-is-text-relative -msched-prolog -mthumb
  71              	@ -munaligned-access -mvectorize-with-neon-quad
  72              	
  73              		.text
  74              	.Ltext0:
  75              		.cfi_sections	.debug_frame
  76              		.section	.rodata.update.str1.4,"aMS",%progbits,1
  77              		.align	2
  78              	.LC0:
  79 0000 48656C6C 		.ascii	"Hello World!\000"
  79      6F20576F 
  79      726C6421 
  79      00
  80              		.section	.text.update,"ax",%progbits
  81              		.align	1
  82              		.p2align 4,,15
  83              		.arch armv7e-m
  84              		.syntax unified
  85              		.thumb
  86              		.thumb_func
  87              		.fpu fpv5-sp-d16
  88              		.type	update, %function
  89              	update:
  90              	.LVL0:
  91              	.LFB16:
  92              		.file 1 "src/main.c"
   1:src/main.c    **** //
   2:src/main.c    **** //  main.c
   3:src/main.c    **** // 
   4:src/main.c    **** 
   5:src/main.c    **** #include <stdio.h>
   6:src/main.c    **** #include <stdlib.h>
   7:src/main.c    **** 
   8:src/main.c    **** #include "pd_api.h"
   9:src/main.c    **** 
  10:src/main.c    **** static int update(void* userdata);
  11:src/main.c    **** const char* fontpath = "/System/Fonts/Asheville-Sans-14-Bold.pft";
  12:src/main.c    **** LCDFont* font = NULL;
  13:src/main.c    **** 
  14:src/main.c    **** #ifdef _WINDLL
  15:src/main.c    **** __declspec(dllexport)
  16:src/main.c    **** #endif
  17:src/main.c    **** int eventHandler(PlaydateAPI* pd, PDSystemEvent event, uint32_t arg)
  18:src/main.c    **** {
  19:src/main.c    ****     (void)arg; // arg is currently only used for event = kEventKeyPressed
ARM GAS  /var/folders/8h/87zzc5m97zn7wd66_2xptdl80000gn/T//ccVzDg46.s 			page 3


  20:src/main.c    **** 
  21:src/main.c    ****     if ( event == kEventInit )
  22:src/main.c    ****     {
  23:src/main.c    ****         const char* err;
  24:src/main.c    ****         font = pd->graphics->loadFont(fontpath, &err);
  25:src/main.c    ****         
  26:src/main.c    ****         if ( font == NULL )
  27:src/main.c    ****             pd->system->error("%s:%i Couldn't load font %s: %s", __FILE__, __LINE__, fontpath, err)
  28:src/main.c    **** 
  29:src/main.c    ****         // Note: If you set an update callback in the kEventInit handler, the system assumes the ga
  30:src/main.c    ****         pd->system->setUpdateCallback(update, pd);
  31:src/main.c    ****     }
  32:src/main.c    ****     
  33:src/main.c    ****     return 0;
  34:src/main.c    **** }
  35:src/main.c    **** 
  36:src/main.c    **** 
  37:src/main.c    **** #define TEXT_WIDTH 86
  38:src/main.c    **** #define TEXT_HEIGHT 16
  39:src/main.c    **** 
  40:src/main.c    **** int x = (400-TEXT_WIDTH)/2;
  41:src/main.c    **** int y = (240-TEXT_HEIGHT)/2;
  42:src/main.c    **** int dx = 1;
  43:src/main.c    **** int dy = 2;
  44:src/main.c    **** 
  45:src/main.c    **** static int update(void* userdata)
  46:src/main.c    **** {
  93              		.loc 1 46 1 view -0
  94              		.cfi_startproc
  95              		@ args = 0, pretend = 0, frame = 0
  96              		@ frame_needed = 0, uses_anonymous_args = 0
  47:src/main.c    ****     PlaydateAPI* pd = userdata;
  97              		.loc 1 47 5 view .LVU1
  98              	@ src/main.c:46: {
  46:src/main.c    ****     PlaydateAPI* pd = userdata;
  99              		.loc 1 46 1 is_stmt 0 view .LVU2
 100 0000 F0B5     		push	{r4, r5, r6, r7, lr}	@
 101              	.LCFI0:
 102              		.cfi_def_cfa_offset 20
 103              		.cfi_offset 4, -20
 104              		.cfi_offset 5, -16
 105              		.cfi_offset 6, -12
 106              		.cfi_offset 7, -8
 107              		.cfi_offset 14, -4
 108 0002 0446     		mov	r4, r0	@ tmp164, userdata
 109 0004 83B0     		sub	sp, sp, #12	@,,
 110              	.LCFI1:
 111              		.cfi_def_cfa_offset 32
 112              	@ src/main.c:49:     pd->graphics->clear(kColorWhite);
  48:src/main.c    ****     
  49:src/main.c    ****     pd->graphics->clear(kColorWhite);
 113              		.loc 1 49 5 view .LVU3
 114 0006 0120     		movs	r0, #1	@,
 115              	.LVL1:
 116              	@ src/main.c:51:     pd->graphics->drawText("Hello World!", strlen("Hello World!"), kASCIIEncoding,
  50:src/main.c    ****     pd->graphics->setFont(font);
  51:src/main.c    ****     pd->graphics->drawText("Hello World!", strlen("Hello World!"), kASCIIEncoding, x, y);
ARM GAS  /var/folders/8h/87zzc5m97zn7wd66_2xptdl80000gn/T//ccVzDg46.s 			page 4


 117              		.loc 1 51 5 view .LVU4
 118 0008 184D     		ldr	r5, .L6	@ tmp143,
 119              	.LVL2:
  49:src/main.c    ****     pd->graphics->setFont(font);
 120              		.loc 1 49 5 is_stmt 1 view .LVU5
 121              	@ src/main.c:49:     pd->graphics->clear(kColorWhite);
  49:src/main.c    ****     pd->graphics->setFont(font);
 122              		.loc 1 49 17 is_stmt 0 view .LVU6
 123 000a A368     		ldr	r3, [r4, #8]	@ MEM[(struct PlaydateAPI *)userdata_24(D)].graphics, MEM[(struct PlaydateAPI *)u
 124              	@ src/main.c:51:     pd->graphics->drawText("Hello World!", strlen("Hello World!"), kASCIIEncoding,
 125              		.loc 1 51 5 view .LVU7
 126 000c 184E     		ldr	r6, .L6+4	@ tmp139,
 127              	@ src/main.c:49:     pd->graphics->clear(kColorWhite);
  49:src/main.c    ****     pd->graphics->setFont(font);
 128              		.loc 1 49 5 view .LVU8
 129 000e 5B68     		ldr	r3, [r3, #4]	@ _1->clear, _1->clear
 130 0010 9847     		blx	r3		@ _1->clear
 131              	.LVL3:
  50:src/main.c    ****     pd->graphics->setFont(font);
 132              		.loc 1 50 5 is_stmt 1 view .LVU9
 133 0012 184A     		ldr	r2, .L6+8	@ tmp135,
 134              	@ src/main.c:50:     pd->graphics->setFont(font);
  50:src/main.c    ****     pd->graphics->setFont(font);
 135              		.loc 1 50 17 is_stmt 0 view .LVU10
 136 0014 A368     		ldr	r3, [r4, #8]	@ MEM[(struct PlaydateAPI *)userdata_24(D)].graphics, MEM[(struct PlaydateAPI *)u
 137              	@ src/main.c:50:     pd->graphics->setFont(font);
  50:src/main.c    ****     pd->graphics->setFont(font);
 138              		.loc 1 50 5 view .LVU11
 139 0016 1068     		ldr	r0, [r2]	@, font
 140 0018 5B6A     		ldr	r3, [r3, #36]	@ _3->setFont, _3->setFont
 141 001a 9847     		blx	r3		@ _3->setFont
 142              	.LVL4:
 143              		.loc 1 51 5 is_stmt 1 view .LVU12
 144 001c 2868     		ldr	r0, [r5]	@ y, y
 145              	@ src/main.c:51:     pd->graphics->drawText("Hello World!", strlen("Hello World!"), kASCIIEncoding,
 146              		.loc 1 51 17 is_stmt 0 view .LVU13
 147 001e A768     		ldr	r7, [r4, #8]	@ MEM[(struct PlaydateAPI *)userdata_24(D)].graphics, MEM[(struct PlaydateAPI *)u
 148              	@ src/main.c:51:     pd->graphics->drawText("Hello World!", strlen("Hello World!"), kASCIIEncoding,
 149              		.loc 1 51 5 view .LVU14
 150 0020 0022     		movs	r2, #0	@,
 151 0022 0090     		str	r0, [sp]	@ y,
 152 0024 0C21     		movs	r1, #12	@,
 153 0026 3368     		ldr	r3, [r6]	@, x
 154 0028 BF6D     		ldr	r7, [r7, #88]	@ _6->drawText, _6->drawText
 155 002a 1348     		ldr	r0, .L6+12	@,
 156 002c B847     		blx	r7		@ _6->drawText
 157              	.LVL5:
  52:src/main.c    **** 
  53:src/main.c    ****     x += dx;
 158              		.loc 1 53 5 is_stmt 1 view .LVU15
 159              	@ src/main.c:53:     x += dx;
 160              		.loc 1 53 7 is_stmt 0 view .LVU16
 161 002e DFF850C0 		ldr	ip, .L6+20	@ tmp146,
 162 0032 3268     		ldr	r2, [r6]	@ x, x
 163              	@ src/main.c:54:     y += dy;
  54:src/main.c    ****     y += dy;
 164              		.loc 1 54 7 view .LVU17
ARM GAS  /var/folders/8h/87zzc5m97zn7wd66_2xptdl80000gn/T//ccVzDg46.s 			page 5


 165 0034 114F     		ldr	r7, .L6+16	@ tmp161,
 166              	@ src/main.c:53:     x += dx;
  53:src/main.c    ****     y += dy;
 167              		.loc 1 53 7 view .LVU18
 168 0036 DCF80000 		ldr	r0, [ip]	@ dx.8_11, dx
 169              	@ src/main.c:54:     y += dy;
 170              		.loc 1 54 7 view .LVU19
 171 003a 2B68     		ldr	r3, [r5]	@ y, y
 172              	@ src/main.c:53:     x += dx;
  53:src/main.c    ****     y += dy;
 173              		.loc 1 53 7 view .LVU20
 174 003c 0244     		add	r2, r2, r0	@ _12, dx.8_11
 175              	@ src/main.c:54:     y += dy;
 176              		.loc 1 54 7 view .LVU21
 177 003e 3968     		ldr	r1, [r7]	@ dy.10_14, dy
 178              	@ src/main.c:56:     if ( x < 0 || x > LCD_COLUMNS - TEXT_WIDTH )
  55:src/main.c    ****     
  56:src/main.c    ****     if ( x < 0 || x > LCD_COLUMNS - TEXT_WIDTH )
 179              		.loc 1 56 8 view .LVU22
 180 0040 B2F59D7F 		cmp	r2, #314	@ _12,
 181              	@ src/main.c:54:     y += dy;
  54:src/main.c    ****     
 182              		.loc 1 54 7 view .LVU23
 183 0044 0B44     		add	r3, r3, r1	@ _15, dy.10_14
 184              	@ src/main.c:53:     x += dx;
  53:src/main.c    ****     y += dy;
 185              		.loc 1 53 7 view .LVU24
 186 0046 3260     		str	r2, [r6]	@ _12, x
  54:src/main.c    ****     
 187              		.loc 1 54 5 is_stmt 1 view .LVU25
 188              	@ src/main.c:54:     y += dy;
  54:src/main.c    ****     
 189              		.loc 1 54 7 is_stmt 0 view .LVU26
 190 0048 2B60     		str	r3, [r5]	@ _15, y
 191              		.loc 1 56 5 is_stmt 1 view .LVU27
 192              	@ src/main.c:56:     if ( x < 0 || x > LCD_COLUMNS - TEXT_WIDTH )
 193              		.loc 1 56 8 is_stmt 0 view .LVU28
 194 004a 02D9     		bls	.L2		@,
  57:src/main.c    ****         dx = -dx;
 195              		.loc 1 57 9 is_stmt 1 view .LVU29
 196              	@ src/main.c:57:         dx = -dx;
 197              		.loc 1 57 14 is_stmt 0 view .LVU30
 198 004c 4042     		rsbs	r0, r0, #0	@ tmp155, dx.8_11
 199              	@ src/main.c:57:         dx = -dx;
 200              		.loc 1 57 12 view .LVU31
 201 004e CCF80000 		str	r0, [ip]	@ tmp155, dx
 202              	.L2:
  58:src/main.c    ****     
  59:src/main.c    ****     if ( y < 0 || y > LCD_ROWS - TEXT_HEIGHT )
 203              		.loc 1 59 5 is_stmt 1 view .LVU32
 204              	@ src/main.c:59:     if ( y < 0 || y > LCD_ROWS - TEXT_HEIGHT )
 205              		.loc 1 59 8 is_stmt 0 view .LVU33
 206 0052 E02B     		cmp	r3, #224	@ _15,
 207 0054 01D9     		bls	.L3		@,
  60:src/main.c    ****         dy = -dy;
 208              		.loc 1 60 9 is_stmt 1 view .LVU34
 209              	@ src/main.c:60:         dy = -dy;
ARM GAS  /var/folders/8h/87zzc5m97zn7wd66_2xptdl80000gn/T//ccVzDg46.s 			page 6


 210              		.loc 1 60 14 is_stmt 0 view .LVU35
 211 0056 4942     		rsbs	r1, r1, #0	@ tmp157, dy.10_14
 212              	@ src/main.c:60:         dy = -dy;
 213              		.loc 1 60 12 view .LVU36
 214 0058 3960     		str	r1, [r7]	@ tmp157, dy
 215              	.L3:
  61:src/main.c    ****         
  62:src/main.c    ****     pd->system->drawFPS(0,0);
 216              		.loc 1 62 5 is_stmt 1 view .LVU37
 217              	@ src/main.c:62:     pd->system->drawFPS(0,0);
 218              		.loc 1 62 15 is_stmt 0 view .LVU38
 219 005a 2368     		ldr	r3, [r4]	@ MEM[(struct PlaydateAPI *)userdata_24(D)].system, MEM[(struct PlaydateAPI *)userdat
 220              	@ src/main.c:62:     pd->system->drawFPS(0,0);
 221              		.loc 1 62 5 view .LVU39
 222 005c 0021     		movs	r1, #0	@,
 223 005e DB69     		ldr	r3, [r3, #28]	@ _20->drawFPS, _20->drawFPS
 224 0060 0846     		mov	r0, r1	@,
 225 0062 9847     		blx	r3		@ _20->drawFPS
 226              	.LVL6:
  63:src/main.c    **** 
  64:src/main.c    ****     return 1;
 227              		.loc 1 64 5 is_stmt 1 view .LVU40
 228              	@ src/main.c:65: }
  65:src/main.c    **** }
 229              		.loc 1 65 1 is_stmt 0 view .LVU41
 230 0064 0120     		movs	r0, #1	@,
 231 0066 03B0     		add	sp, sp, #12	@,,
 232              	.LCFI2:
 233              		.cfi_def_cfa_offset 20
 234              		@ sp needed	@
 235 0068 F0BD     		pop	{r4, r5, r6, r7, pc}	@
 236              	.LVL7:
 237              	.L7:
 238              		.loc 1 65 1 view .LVU42
 239 006a 00BF     		.align	2
 240              	.L6:
 241 006c 00000000 		.word	.LANCHOR2
 242 0070 00000000 		.word	.LANCHOR1
 243 0074 00000000 		.word	.LANCHOR0
 244 0078 00000000 		.word	.LC0
 245 007c 00000000 		.word	.LANCHOR4
 246 0080 00000000 		.word	.LANCHOR3
 247              		.cfi_endproc
 248              	.LFE16:
 249              		.size	update, .-update
 250              		.section	.rodata.eventHandler.str1.4,"aMS",%progbits,1
 251              		.align	2
 252              	.LC1:
 253 0000 7372632F 		.ascii	"src/main.c\000"
 253      6D61696E 
 253      2E6300
 254 000b 00       		.align	2
 255              	.LC2:
 256 000c 25733A25 		.ascii	"%s:%i Couldn't load font %s: %s\000"
 256      6920436F 
 256      756C646E 
 256      2774206C 
ARM GAS  /var/folders/8h/87zzc5m97zn7wd66_2xptdl80000gn/T//ccVzDg46.s 			page 7


 256      6F616420 
 257              		.section	.text.eventHandler,"ax",%progbits
 258              		.align	1
 259              		.p2align 4,,15
 260              		.global	eventHandler
 261              		.syntax unified
 262              		.thumb
 263              		.thumb_func
 264              		.fpu fpv5-sp-d16
 265              		.type	eventHandler, %function
 266              	eventHandler:
 267              	.LVL8:
 268              	.LFB15:
  18:src/main.c    ****     (void)arg; // arg is currently only used for event = kEventKeyPressed
 269              		.loc 1 18 1 is_stmt 1 view -0
 270              		.cfi_startproc
 271              		@ args = 0, pretend = 0, frame = 8
 272              		@ frame_needed = 0, uses_anonymous_args = 0
  19:src/main.c    **** 
 273              		.loc 1 19 5 view .LVU44
  21:src/main.c    ****     {
 274              		.loc 1 21 5 view .LVU45
 275              	@ src/main.c:21:     if ( event == kEventInit )
  21:src/main.c    ****     {
 276              		.loc 1 21 8 is_stmt 0 view .LVU46
 277 0000 A1B9     		cbnz	r1, .L12	@ tmp142,
 278              	.LBB2:
  23:src/main.c    ****         font = pd->graphics->loadFont(fontpath, &err);
 279              		.loc 1 23 9 is_stmt 1 view .LVU47
  24:src/main.c    ****         
 280              		.loc 1 24 9 view .LVU48
 281              	@ src/main.c:24:         font = pd->graphics->loadFont(fontpath, &err);
  24:src/main.c    ****         
 282              		.loc 1 24 28 is_stmt 0 view .LVU49
 283 0002 8368     		ldr	r3, [r0, #8]	@ pd_15(D)->graphics, pd_15(D)->graphics
 284              	.LBE2:
 285              	@ src/main.c:18: {
  18:src/main.c    ****     (void)arg; // arg is currently only used for event = kEventKeyPressed
 286              		.loc 1 18 1 view .LVU50
 287 0004 30B5     		push	{r4, r5, lr}	@
 288              	.LCFI3:
 289              		.cfi_def_cfa_offset 12
 290              		.cfi_offset 4, -12
 291              		.cfi_offset 5, -8
 292              		.cfi_offset 14, -4
 293              	.LBB3:
 294              	@ src/main.c:24:         font = pd->graphics->loadFont(fontpath, &err);
  24:src/main.c    ****         
 295              		.loc 1 24 16 view .LVU51
 296 0006 0F4D     		ldr	r5, .L16	@ tmp125,
 297              	.LBE3:
 298              	@ src/main.c:18: {
  18:src/main.c    ****     (void)arg; // arg is currently only used for event = kEventKeyPressed
 299              		.loc 1 18 1 view .LVU52
 300 0008 85B0     		sub	sp, sp, #20	@,,
 301              	.LCFI4:
 302              		.cfi_def_cfa_offset 32
ARM GAS  /var/folders/8h/87zzc5m97zn7wd66_2xptdl80000gn/T//ccVzDg46.s 			page 8


 303              	.LBB4:
 304              	@ src/main.c:24:         font = pd->graphics->loadFont(fontpath, &err);
  24:src/main.c    ****         
 305              		.loc 1 24 16 view .LVU53
 306 000a D3F89030 		ldr	r3, [r3, #144]	@ _1->loadFont, _1->loadFont
 307 000e 0446     		mov	r4, r0	@ pd, tmp141
 308 0010 03A9     		add	r1, sp, #12	@,,
 309              	.LVL9:
  24:src/main.c    ****         
 310              		.loc 1 24 16 view .LVU54
 311 0012 2868     		ldr	r0, [r5]	@, fontpath
 312              	.LVL10:
  24:src/main.c    ****         
 313              		.loc 1 24 16 view .LVU55
 314 0014 9847     		blx	r3		@ _1->loadFont
 315              	.LVL11:
 316              	@ src/main.c:24:         font = pd->graphics->loadFont(fontpath, &err);
  24:src/main.c    ****         
 317              		.loc 1 24 14 view .LVU56
 318 0016 0C4B     		ldr	r3, .L16+4	@ tmp129,
 319 0018 1860     		str	r0, [r3]	@ _4, font
  26:src/main.c    ****             pd->system->error("%s:%i Couldn't load font %s: %s", __FILE__, __LINE__, fontpath, err)
 320              		.loc 1 26 9 is_stmt 1 view .LVU57
 321              	@ src/main.c:26:         if ( font == NULL )
  26:src/main.c    ****             pd->system->error("%s:%i Couldn't load font %s: %s", __FILE__, __LINE__, fontpath, err)
 322              		.loc 1 26 12 is_stmt 0 view .LVU58
 323 001a 48B1     		cbz	r0, .L15	@ _4,
 324              	.L10:
  30:src/main.c    ****     }
 325              		.loc 1 30 9 is_stmt 1 view .LVU59
 326              	@ src/main.c:30:         pd->system->setUpdateCallback(update, pd);
  30:src/main.c    ****     }
 327              		.loc 1 30 19 is_stmt 0 view .LVU60
 328 001c 2368     		ldr	r3, [r4]	@ pd_15(D)->system, pd_15(D)->system
 329              	@ src/main.c:30:         pd->system->setUpdateCallback(update, pd);
  30:src/main.c    ****     }
 330              		.loc 1 30 9 view .LVU61
 331 001e 2146     		mov	r1, r4	@, pd
 332 0020 0A48     		ldr	r0, .L16+8	@,
 333 0022 1B6A     		ldr	r3, [r3, #32]	@ _9->setUpdateCallback, _9->setUpdateCallback
 334 0024 9847     		blx	r3		@ _9->setUpdateCallback
 335              	.LVL12:
 336              	.LBE4:
  33:src/main.c    **** }
 337              		.loc 1 33 5 is_stmt 1 view .LVU62
 338              	@ src/main.c:34: }
  34:src/main.c    **** 
 339              		.loc 1 34 1 is_stmt 0 view .LVU63
 340 0026 0020     		movs	r0, #0	@,
 341 0028 05B0     		add	sp, sp, #20	@,,
 342              	.LCFI5:
 343              		.cfi_def_cfa_offset 12
 344              		@ sp needed	@
 345 002a 30BD     		pop	{r4, r5, pc}	@
 346              	.LVL13:
 347              	.L12:
 348              	.LCFI6:
ARM GAS  /var/folders/8h/87zzc5m97zn7wd66_2xptdl80000gn/T//ccVzDg46.s 			page 9


 349              		.cfi_def_cfa_offset 0
 350              		.cfi_restore 4
 351              		.cfi_restore 5
 352              		.cfi_restore 14
  33:src/main.c    **** }
 353              		.loc 1 33 5 is_stmt 1 view .LVU64
 354              	@ src/main.c:34: }
  34:src/main.c    **** 
 355              		.loc 1 34 1 is_stmt 0 view .LVU65
 356 002c 0020     		movs	r0, #0	@,
 357              	.LVL14:
  34:src/main.c    **** 
 358              		.loc 1 34 1 view .LVU66
 359 002e 7047     		bx	lr	@
 360              	.LVL15:
 361              	.L15:
 362              	.LCFI7:
 363              		.cfi_def_cfa_offset 32
 364              		.cfi_offset 4, -12
 365              		.cfi_offset 5, -8
 366              		.cfi_offset 14, -4
 367              	.LBB5:
  27:src/main.c    **** 
 368              		.loc 1 27 13 is_stmt 1 view .LVU67
 369              	@ src/main.c:27:             pd->system->error("%s:%i Couldn't load font %s: %s", __FILE__, __LINE_
  27:src/main.c    **** 
 370              		.loc 1 27 23 is_stmt 0 view .LVU68
 371 0030 2068     		ldr	r0, [r4]	@ pd_15(D)->system, pd_15(D)->system
 372              	@ src/main.c:27:             pd->system->error("%s:%i Couldn't load font %s: %s", __FILE__, __LINE_
  27:src/main.c    **** 
 373              		.loc 1 27 13 view .LVU69
 374 0032 1B22     		movs	r2, #27	@,
 375 0034 0399     		ldr	r1, [sp, #12]	@ err, err
 376 0036 2B68     		ldr	r3, [r5]	@, fontpath
 377 0038 0091     		str	r1, [sp]	@ err,
 378 003a 0549     		ldr	r1, .L16+12	@,
 379 003c C568     		ldr	r5, [r0, #12]	@ _5->error, _5->error
 380 003e 0548     		ldr	r0, .L16+16	@,
 381 0040 A847     		blx	r5		@ _5->error
 382              	.LVL16:
 383 0042 EBE7     		b	.L10		@
 384              	.L17:
 385              		.align	2
 386              	.L16:
 387 0044 00000000 		.word	.LANCHOR5
 388 0048 00000000 		.word	.LANCHOR0
 389 004c 00000000 		.word	update
 390 0050 00000000 		.word	.LC1
 391 0054 0C000000 		.word	.LC2
 392              	.LBE5:
 393              		.cfi_endproc
 394              	.LFE15:
 395              		.size	eventHandler, .-eventHandler
 396              		.global	dy
 397              		.global	dx
 398              		.global	y
 399              		.global	x
ARM GAS  /var/folders/8h/87zzc5m97zn7wd66_2xptdl80000gn/T//ccVzDg46.s 			page 10


 400              		.global	font
 401              		.global	fontpath
 402              		.section	.rodata.str1.4,"aMS",%progbits,1
 403              		.align	2
 404              	.LC3:
 405 0000 2F537973 		.ascii	"/System/Fonts/Asheville-Sans-14-Bold.pft\000"
 405      74656D2F 
 405      466F6E74 
 405      732F4173 
 405      68657669 
 406              		.section	.bss.font,"aw",%nobits
 407              		.align	2
 408              		.set	.LANCHOR0,. + 0
 409              		.type	font, %object
 410              		.size	font, 4
 411              	font:
 412 0000 00000000 		.space	4
 413              		.section	.data.dx,"aw"
 414              		.align	2
 415              		.set	.LANCHOR3,. + 0
 416              		.type	dx, %object
 417              		.size	dx, 4
 418              	dx:
 419 0000 01000000 		.word	1
 420              		.section	.data.dy,"aw"
 421              		.align	2
 422              		.set	.LANCHOR4,. + 0
 423              		.type	dy, %object
 424              		.size	dy, 4
 425              	dy:
 426 0000 02000000 		.word	2
 427              		.section	.data.fontpath,"aw"
 428              		.align	2
 429              		.set	.LANCHOR5,. + 0
 430              		.type	fontpath, %object
 431              		.size	fontpath, 4
 432              	fontpath:
 433 0000 00000000 		.word	.LC3
 434              		.section	.data.x,"aw"
 435              		.align	2
 436              		.set	.LANCHOR1,. + 0
 437              		.type	x, %object
 438              		.size	x, 4
 439              	x:
 440 0000 9D000000 		.word	157
 441              		.section	.data.y,"aw"
 442              		.align	2
 443              		.set	.LANCHOR2,. + 0
 444              		.type	y, %object
 445              		.size	y, 4
 446              	y:
 447 0000 70000000 		.word	112
 448              		.text
 449              	.Letext0:
 450              		.file 2 "/usr/local/playdate/gcc-arm-none-eabi-9-2019-q4-major/arm-none-eabi/include/machine/_defa
 451              		.file 3 "/usr/local/playdate/gcc-arm-none-eabi-9-2019-q4-major/lib/gcc/arm-none-eabi/9.2.1/include
 452              		.file 4 "/usr/local/playdate/gcc-arm-none-eabi-9-2019-q4-major/arm-none-eabi/include/sys/lock.h"
ARM GAS  /var/folders/8h/87zzc5m97zn7wd66_2xptdl80000gn/T//ccVzDg46.s 			page 11


 453              		.file 5 "/usr/local/playdate/gcc-arm-none-eabi-9-2019-q4-major/arm-none-eabi/include/sys/_types.h"
 454              		.file 6 "/usr/local/playdate/gcc-arm-none-eabi-9-2019-q4-major/arm-none-eabi/include/sys/reent.h"
 455              		.file 7 "/usr/local/playdate/gcc-arm-none-eabi-9-2019-q4-major/arm-none-eabi/include/sys/_stdint.h
 456              		.file 8 "/usr/local/playdate/gcc-arm-none-eabi-9-2019-q4-major/arm-none-eabi/include/stdlib.h"
 457              		.file 9 "/Users/sam/Developer/PlaydateSDK/C_API/pd_api/pd_api_gfx.h"
 458              		.file 10 "/Users/sam/Developer/PlaydateSDK/C_API/pd_api/pd_api_sys.h"
 459              		.file 11 "/Users/sam/Developer/PlaydateSDK/C_API/pd_api/pd_api_lua.h"
 460              		.file 12 "/Users/sam/Developer/PlaydateSDK/C_API/pd_api/pd_api_json.h"
 461              		.file 13 "/Users/sam/Developer/PlaydateSDK/C_API/pd_api/pd_api_file.h"
 462              		.file 14 "/Users/sam/Developer/PlaydateSDK/C_API/pd_api/pd_api_sprite.h"
 463              		.file 15 "/Users/sam/Developer/PlaydateSDK/C_API/pd_api/pd_api_sound.h"
 464              		.file 16 "/usr/local/playdate/gcc-arm-none-eabi-9-2019-q4-major/arm-none-eabi/include/math.h"
 465              		.file 17 "/Users/sam/Developer/PlaydateSDK/C_API/pd_api/pd_api_display.h"
 466              		.file 18 "/Users/sam/Developer/PlaydateSDK/C_API/pd_api/pd_api_scoreboards.h"
 467              		.file 19 "/Users/sam/Developer/PlaydateSDK/C_API/pd_api.h"